; Function Attrs: mustprogress uwtable
define hidden void @_ZN4cvc58internal22UninterpretedSortValueC2ERKNS0_8TypeNodeERKNS0_7IntegerE(ptr noundef nonnull align 8 dereferenceable(24) %0, ptr noundef nonnull readonly align 8 captures(none) dereferenceable(8) %1, ptr noundef nonnull align 8 dereferenceable(16) %2) unnamed_addr #3 align 2 personality ptr @__gxx_personality_v0 {
  %4 = tail call noalias noundef nonnull dereferenceable(8) ptr @_Znwm(i64 noundef 8) #15
  %5 = load ptr, ptr %1, align 8, !tbaa !10
  store ptr %5, ptr %4, align 8, !tbaa !10
  %6 = load i64, ptr %5, align 8
  %7 = lshr i64 %6, 40
  %8 = trunc nuw nsw i64 %7 to i32
  %9 = and i32 %8, 1048575
  %10 = icmp samesign ult i32 %9, 1048574
  br i1 %10, label %11, label %16, !prof !20

11:                                               ; preds = %3
  %12 = add i64 %6, 1099511627776
  %13 = and i64 %12, 1152920405095219200
  %14 = and i64 %6, -1152920405095219201
  %15 = or disjoint i64 %13, %14
  store i64 %15, ptr %5, align 8
  br label %_ZN4cvc58internal8TypeNodeC2ERKS1_.exit

16:                                               ; preds = %3
  %17 = icmp eq i32 %9, 1048574
  br i1 %17, label %18, label %_ZN4cvc58internal8TypeNodeC2ERKS1_.exit, !prof !21

18:                                               ; preds = %16
  %19 = or i64 %6, 1152920405095219200
  store i64 %19, ptr %5, align 8
  invoke void @_ZN4cvc58internal4expr9NodeValue20markRefCountMaxedOutEv(ptr noundef nonnull align 8 dereferenceable(24) %5)
          to label %_ZN4cvc58internal8TypeNodeC2ERKS1_.exit unwind label %21

_ZN4cvc58internal8TypeNodeC2ERKS1_.exit:          ; preds = %16, %11, %18
  store ptr %4, ptr %0, align 8, !tbaa !3
  %20 = getelementptr inbounds nuw i8, ptr %0, i64 8
  invoke void @__gmpz_init_set(ptr noundef nonnull align 8 dereferenceable(16) %20, ptr noundef nonnull align 8 dereferenceable(16) %2)
          to label %_ZN4cvc58internal7IntegerC2ERKS1_.exit unwind label %23

_ZN4cvc58internal7IntegerC2ERKS1_.exit:           ; preds = %_ZN4cvc58internal8TypeNodeC2ERKS1_.exit
  ret void

21:                                               ; preds = %18
  %22 = landingpad { ptr, i32 }
          cleanup
  tail call void @_ZdlPvm(ptr noundef nonnull %4, i64 noundef 8) #14
  br label %25

23:                                               ; preds = %_ZN4cvc58internal8TypeNodeC2ERKS1_.exit
  %24 = landingpad { ptr, i32 }
          cleanup
  tail call void @_ZNSt10unique_ptrIN4cvc58internal8TypeNodeESt14default_deleteIS2_EED2Ev(ptr noundef nonnull align 8 dereferenceable(8) %0) #13
  br label %25

25:                                               ; preds = %23, %21
  %.pn = phi { ptr, i32 } [ %24, %23 ], [ %22, %21 ]
  resume { ptr, i32 } %.pn
}